; Function Attrs: mustprogress nounwind willreturn uwtable
define internal void @ext_alpn_init(ptr noundef readonly captures(none) %0) #17 {
  %2 = getelementptr inbounds nuw i8, ptr %0, i64 80
  %3 = load ptr, ptr %2, align 8, !tbaa !58
  %4 = getelementptr inbounds nuw i8, ptr %3, i64 752
  %5 = load ptr, ptr %4, align 8, !tbaa !162
  tail call void @free(ptr noundef %5) #21
  %6 = load ptr, ptr %2, align 8, !tbaa !58
  %7 = getelementptr inbounds nuw i8, ptr %6, i64 752
  store ptr null, ptr %7, align 8, !tbaa !162
  ret void
}